target datalayout = "e-m:e-p270:32:32-p271:32:32-p272:64:64-i64:64-i128:128-f80:128-n8:16:32:64-S128"
target triple = "x86_64-pc-linux-gnu"

@.str.72 = private unnamed_addr constant [19 x i8] c"coroutine expected\00", align 1

; Function Attrs: nounwind uwtable
define internal i32 @luaB_coresume(ptr noundef %0) #0 {
  %2 = alloca i32, align 4
  %3 = alloca ptr, align 8
  %4 = alloca ptr, align 8
  %5 = alloca i32, align 4
  %6 = alloca i32, align 4
  store ptr %0, ptr %3, align 8, !tbaa !4
  call void @llvm.lifetime.start.p0(i64 8, ptr %4) #5
  %7 = load ptr, ptr %3, align 8, !tbaa !4
  %8 = call ptr @lua_tothread(ptr noundef %7, i32 noundef 1)
  store ptr %8, ptr %4, align 8, !tbaa !4
  call void @llvm.lifetime.start.p0(i64 4, ptr %5) #5
  %9 = load ptr, ptr %4, align 8, !tbaa !4
  %10 = icmp ne ptr %9, null
  br i1 %10, label %14, label %11

11:                                               ; preds = %1
  %12 = load ptr, ptr %3, align 8, !tbaa !4
  %13 = call i32 @luaL_argerror(ptr noundef %12, i32 noundef 1, ptr noundef @.str.72)
  br label %14

14:                                               ; preds = %11, %1
  %15 = load ptr, ptr %3, align 8, !tbaa !4
  %16 = load ptr, ptr %4, align 8, !tbaa !4
  %17 = load ptr, ptr %3, align 8, !tbaa !4
  %18 = call i32 @lua_gettop(ptr noundef %17)
  %19 = sub nsw i32 %18, 1
  %20 = call i32 @auxresume(ptr noundef %15, ptr noundef %16, i32 noundef %19)
  store i32 %20, ptr %5, align 4, !tbaa !12
  %21 = load i32, ptr %5, align 4, !tbaa !12
  %22 = icmp slt i32 %21, 0
  br i1 %22, label %23, label %26

23:                                               ; preds = %14
  %24 = load ptr, ptr %3, align 8, !tbaa !4
  call void @lua_pushboolean(ptr noundef %24, i32 noundef 0)
  %25 = load ptr, ptr %3, align 8, !tbaa !4
  call void @lua_insert(ptr noundef %25, i32 noundef -2)
  store i32 2, ptr %2, align 4
  store i32 1, ptr %6, align 4
  br label %34

26:                                               ; preds = %14
  %27 = load ptr, ptr %3, align 8, !tbaa !4
  call void @lua_pushboolean(ptr noundef %27, i32 noundef 1)
  %28 = load ptr, ptr %3, align 8, !tbaa !4
  %29 = load i32, ptr %5, align 4, !tbaa !12
  %30 = add nsw i32 %29, 1
  %31 = sub nsw i32 0, %30
  call void @lua_insert(ptr noundef %28, i32 noundef %31)
  %32 = load i32, ptr %5, align 4, !tbaa !12
  %33 = add nsw i32 %32, 1
  store i32 %33, ptr %2, align 4
  store i32 1, ptr %6, align 4
  br label %34

34:                                               ; preds = %26, %23
  call void @llvm.lifetime.end.p0(i64 4, ptr %5) #5
  call void @llvm.lifetime.end.p0(i64 8, ptr %4) #5
  %35 = load i32, ptr %2, align 4
  ret i32 %35
}