; Function Attrs: nounwind uwtable
define internal range(i32 1, -2147483648) i32 @luaB_coresume(ptr noundef %0) #0 {
  %2 = tail call ptr @lua_tothread(ptr noundef %0, i32 noundef 1) #8
  %.not = icmp eq ptr %2, null
  br i1 %.not, label %.split14, label %.split

.split14:                                         ; preds = %1
  %3 = tail call i32 @luaL_argerror(ptr noundef %0, i32 noundef 1, ptr noundef nonnull @.str.72) #8
  br label %.split

.split:                                           ; preds = %1, %.split14
  %.sink = phi ptr [ null, %.split14 ], [ %2, %1 ]
  %4 = tail call i32 @lua_gettop(ptr noundef %0) #8
  %5 = add nsw i32 %4, -1
  %6 = tail call fastcc i32 @auxresume(ptr noundef %0, ptr noundef %.sink, i32 noundef %5)
  %7 = icmp slt i32 %6, 0
  br i1 %7, label %8, label %9

8:                                                ; preds = %.split
  tail call void @lua_pushboolean(ptr noundef %0, i32 noundef 0) #8
  br label %12

9:                                                ; preds = %.split
  tail call void @lua_pushboolean(ptr noundef %0, i32 noundef 1) #8
  %10 = add nuw nsw i32 %6, 1
  %11 = xor i32 %6, -1
  br label %12

12:                                               ; preds = %9, %8
  %.sink18 = phi i32 [ %11, %9 ], [ -2, %8 ]
  %.0 = phi i32 [ %10, %9 ], [ 2, %8 ]
  tail call void @lua_insert(ptr noundef %0, i32 noundef %.sink18) #8
  ret i32 %.0
}